target datalayout = "e-m:e-p270:32:32-p271:32:32-p272:64:64-i64:64-i128:128-f80:128-n8:16:32:64-S128"
target triple = "x86_64-pc-linux-gnu"

%struct.ui_st = type { ptr, ptr, ptr, %struct.crypto_ex_data_st, i32, ptr }
%struct.crypto_ex_data_st = type { ptr, ptr }
%struct.ui_method_st = type { ptr, ptr, ptr, ptr, ptr, ptr, ptr, ptr, ptr, %struct.crypto_ex_data_st }

; Function Attrs: nounwind uwtable
define ptr @UI_add_user_data(ptr noundef %0, ptr noundef %1) #0 {
  %3 = alloca ptr, align 8
  %4 = alloca ptr, align 8
  %5 = alloca ptr, align 8
  store ptr %0, ptr %3, align 8, !tbaa !8
  store ptr %1, ptr %4, align 8, !tbaa !25
  call void @llvm.lifetime.start.p0(i64 8, ptr %5) #7
  %6 = load ptr, ptr %3, align 8, !tbaa !8
  %7 = getelementptr inbounds nuw %struct.ui_st, ptr %6, i32 0, i32 2
  %8 = load ptr, ptr %7, align 8, !tbaa !22
  store ptr %8, ptr %5, align 8, !tbaa !25
  %9 = load ptr, ptr %3, align 8, !tbaa !8
  %10 = getelementptr inbounds nuw %struct.ui_st, ptr %9, i32 0, i32 4
  %11 = load i32, ptr %10, align 8, !tbaa !18
  %12 = and i32 %11, 2
  %13 = icmp ne i32 %12, 0
  br i1 %13, label %14, label %22

14:                                               ; preds = %2
  %15 = load ptr, ptr %3, align 8, !tbaa !8
  %16 = getelementptr inbounds nuw %struct.ui_st, ptr %15, i32 0, i32 0
  %17 = load ptr, ptr %16, align 8, !tbaa !17
  %18 = getelementptr inbounds nuw %struct.ui_method_st, ptr %17, i32 0, i32 7
  %19 = load ptr, ptr %18, align 8, !tbaa !19
  %20 = load ptr, ptr %3, align 8, !tbaa !8
  %21 = load ptr, ptr %5, align 8, !tbaa !25
  call void %19(ptr noundef %20, ptr noundef %21)
  store ptr null, ptr %5, align 8, !tbaa !25
  br label %22

22:                                               ; preds = %14, %2
  %23 = load ptr, ptr %4, align 8, !tbaa !25
  %24 = load ptr, ptr %3, align 8, !tbaa !8
  %25 = getelementptr inbounds nuw %struct.ui_st, ptr %24, i32 0, i32 2
  store ptr %23, ptr %25, align 8, !tbaa !22
  %26 = load ptr, ptr %3, align 8, !tbaa !8
  %27 = getelementptr inbounds nuw %struct.ui_st, ptr %26, i32 0, i32 4
  %28 = load i32, ptr %27, align 8, !tbaa !18
  %29 = and i32 %28, -3
  store i32 %29, ptr %27, align 8, !tbaa !18
  %30 = load ptr, ptr %5, align 8, !tbaa !25
  call void @llvm.lifetime.end.p0(i64 8, ptr %5) #7
  ret ptr %30
}