; Function Attrs: nounwind uwtable
define ptr @UI_add_user_data(ptr noundef %0, ptr noundef %1) local_unnamed_addr #0 {
  %3 = getelementptr inbounds nuw i8, ptr %0, i64 16
  %4 = load ptr, ptr %3, align 8, !tbaa !19
  %5 = getelementptr inbounds nuw i8, ptr %0, i64 40
  %6 = load i32, ptr %5, align 8, !tbaa !15
  %7 = and i32 %6, 2
  %.not = icmp eq i32 %7, 0
  br i1 %.not, label %12, label %8

8:                                                ; preds = %2
  %9 = load ptr, ptr %0, align 8, !tbaa !14
  %10 = getelementptr inbounds nuw i8, ptr %9, i64 56
  %11 = load ptr, ptr %10, align 8, !tbaa !16
  tail call void %11(ptr noundef nonnull %0, ptr noundef %4) #8
  %.pre = load i32, ptr %5, align 8, !tbaa !15
  br label %12

12:                                               ; preds = %8, %2
  %13 = phi i32 [ %.pre, %8 ], [ %6, %2 ]
  %.0 = phi ptr [ null, %8 ], [ %4, %2 ]
  store ptr %1, ptr %3, align 8, !tbaa !19
  %14 = and i32 %13, -3
  store i32 %14, ptr %5, align 8, !tbaa !15
  ret ptr %.0
}